; Function Attrs: nounwind uwtable
define dso_local range(i32 0, 9203) i32 @data_retrieve_dict_path_string(ptr noundef %0, ptr noundef %1, ptr noundef captures(address_is_null) %2) local_unnamed_addr #0 {
  %4 = tail call ptr @data_resolve_dict_path_const(ptr noundef %0, ptr noundef %1)
  %.not = icmp eq ptr %4, null
  br i1 %.not, label %18, label %5

5:                                                ; preds = %3
  %6 = tail call i32 @data_get_string_converted(ptr noundef nonnull %4, ptr noundef %2)
  %.not14 = icmp eq i32 %6, 0
  %7 = load i64, ptr getelementptr inbounds nuw (i8, ptr @slurm_conf, i64 320), align 8
  %8 = and i64 %7, 256
  %.not15 = icmp eq i64 %8, 0
  br i1 %.not14, label %14, label %9

9:                                                ; preds = %5
  br i1 %.not15, label %18, label %10

10:                                               ; preds = %9
  %11 = tail call i32 @get_log_level() #16
  %12 = icmp sgt i32 %11, 3
  br i1 %12, label %13, label %18

13:                                               ; preds = %10
  tail call void (i32, ptr, ...) @log_var(i32 noundef 4, ptr noundef nonnull @.str.59, ptr noundef nonnull @__func__.data_retrieve_dict_path_string, ptr noundef %0, ptr noundef %1) #16
  br label %18

14:                                               ; preds = %5
  br i1 %.not15, label %18, label %15

15:                                               ; preds = %14
  %16 = load ptr, ptr %2, align 8
  %17 = tail call i64 @strlen(ptr noundef nonnull dereferenceable(1) %16) #17
  tail call void (ptr, i64, i64, i64, ptr, ...) @_log_flag_hex(ptr noundef nonnull %16, i64 noundef %17, i64 noundef -1, i64 noundef -1, ptr noundef nonnull @.str.60, ptr noundef nonnull @__func__.data_retrieve_dict_path_string, ptr noundef %0, ptr noundef %1) #16
  br label %18

18:                                               ; preds = %10, %13, %9, %15, %14, %3
  %.0 = phi i32 [ 9200, %3 ], [ 0, %14 ], [ 0, %15 ], [ %6, %9 ], [ %6, %13 ], [ %6, %10 ]
  ret i32 %.0
}